; Function Attrs: nounwind uwtable
define ptr @l___private_Lean_Compiler_IR_FreeVars_0__Lean_IR_FreeIndices_withParams(ptr noundef readonly captures(none) %0, ptr noundef %1, ptr noundef %2, ptr noundef %3) local_unnamed_addr #0 {
  %5 = getelementptr i8, ptr %0, i64 8
  %.val.i = load i64, ptr %5, align 8, !tbaa !17
  %.mask.i = and i64 %.val.i, 9223372036854775807
  %.not.i = icmp eq i64 %.mask.i, 0
  br i1 %.not.i, label %l_Lean_IR_FreeIndices_insertParams.exit, label %lean_dec.exit.i

lean_dec.exit.i:                                  ; preds = %4
  %6 = tail call ptr @l_Array_foldlMUnsafe_fold___at_Lean_IR_FreeIndices_insertParams___spec__1(ptr noundef nonnull readonly %0, i64 noundef 0, i64 noundef %.mask.i, ptr noundef %2)
  br label %l_Lean_IR_FreeIndices_insertParams.exit

l_Lean_IR_FreeIndices_insertParams.exit:          ; preds = %4, %lean_dec.exit.i
  %.0.i = phi ptr [ %6, %lean_dec.exit.i ], [ %2, %4 ]
  %7 = tail call ptr @lean_apply_2(ptr noundef %1, ptr noundef %.0.i, ptr noundef %3) #3
  ret ptr %7
}